; Function Attrs: nounwind uwtable
define void @yyset_column(i32 noundef %0, ptr nocapture noundef readonly %1) local_unnamed_addr #0 {
  %3 = getelementptr inbounds i8, ptr %1, i64 40
  %4 = load ptr, ptr %3, align 8
  %.not = icmp eq ptr %4, null
  br i1 %.not, label %10, label %5

5:                                                ; preds = %2
  %6 = getelementptr inbounds i8, ptr %1, i64 24
  %7 = load i64, ptr %6, align 8
  %8 = getelementptr inbounds ptr, ptr %4, i64 %7
  %9 = load ptr, ptr %8, align 8
  %.not7 = icmp eq ptr %9, null
  br i1 %.not7, label %10, label %15

10:                                               ; preds = %2, %5
  %11 = load ptr, ptr %1, align 8
  %12 = getelementptr inbounds i8, ptr %11, i64 16
  %13 = load i32, ptr %12, align 8
  tail call void @yara_yyerror(ptr noundef nonnull %1, ptr noundef %11, ptr noundef nonnull @.str.23)
  store i32 %13, ptr %12, align 8
  %14 = getelementptr inbounds i8, ptr %11, i64 24
  tail call void @longjmp(ptr noundef nonnull %14, i32 noundef 1) #31
  unreachable

15:                                               ; preds = %5
  %16 = getelementptr inbounds i8, ptr %9, i64 48
  store i32 %0, ptr %16, align 8
  ret void
}